; Function Attrs: mustprogress nounwind uwtable
define dso_local void @_ZN25cmGlobVerificationManager5ResetEv(ptr noundef nonnull align 8 dereferenceable(112) %0) local_unnamed_addr #4 align 2 personality ptr @__gxx_personality_v0 {
  %2 = getelementptr inbounds nuw i8, ptr %0, i64 16
  %3 = load ptr, ptr %2, align 8
  invoke void @_ZNSt8_Rb_treeIN25cmGlobVerificationManager13CacheEntryKeyESt4pairIKS1_NS0_15CacheEntryValueEESt10_Select1stIS5_ESt4lessIS1_ESaIS5_EE8_M_eraseEPSt13_Rb_tree_nodeIS5_E(ptr noundef nonnull align 8 dereferenceable(48) %0, ptr noundef %3)
          to label %_ZNSt3mapIN25cmGlobVerificationManager13CacheEntryKeyENS0_15CacheEntryValueESt4lessIS1_ESaISt4pairIKS1_S2_EEE5clearEv.exit unwind label %4

4:                                                ; preds = %1
  %5 = landingpad { ptr, i32 }
          catch ptr null
  %6 = extractvalue { ptr, i32 } %5, 0
  tail call void @__clang_call_terminate(ptr %6) #24
  unreachable

_ZNSt3mapIN25cmGlobVerificationManager13CacheEntryKeyENS0_15CacheEntryValueESt4lessIS1_ESaISt4pairIKS1_S2_EEE5clearEv.exit: ; preds = %1
  %7 = getelementptr inbounds nuw i8, ptr %0, i64 8
  store ptr null, ptr %2, align 8
  %8 = getelementptr inbounds nuw i8, ptr %0, i64 24
  store ptr %7, ptr %8, align 8
  %9 = getelementptr inbounds nuw i8, ptr %0, i64 32
  store ptr %7, ptr %9, align 8
  %10 = getelementptr inbounds nuw i8, ptr %0, i64 40
  store i64 0, ptr %10, align 8
  %11 = getelementptr inbounds nuw i8, ptr %0, i64 48
  tail call void @_ZNSt7__cxx1112basic_stringIcSt11char_traitsIcESaIcEE5clearEv(ptr noundef nonnull align 8 dereferenceable(32) %11) #19
  %12 = getelementptr inbounds nuw i8, ptr %0, i64 80
  tail call void @_ZNSt7__cxx1112basic_stringIcSt11char_traitsIcESaIcEE5clearEv(ptr noundef nonnull align 8 dereferenceable(32) %12) #19
  ret void
}